; Function Attrs: nounwind uwtable
define internal i32 @key_to_pki_pem_priv_bio(ptr noundef %0, ptr noundef %1, i32 noundef %2, ptr readnone captures(none) %3, ptr noundef readonly captures(address_is_null) %4, ptr noundef readonly captures(none) %5, ptr noundef %6) #0 {
  %8 = alloca ptr, align 8
  %9 = alloca i32, align 4
  %10 = alloca ptr, align 8
  %11 = alloca i32, align 4
  call void @llvm.lifetime.start.p0(i64 8, ptr nonnull %10) #5
  store ptr null, ptr %10, align 8, !tbaa !21
  call void @llvm.lifetime.start.p0(i64 4, ptr nonnull %11) #5
  store i32 -1, ptr %11, align 4, !tbaa !20
  %12 = getelementptr inbounds nuw i8, ptr %6, i64 12
  %13 = load i32, ptr %12, align 4, !tbaa !17
  %.not = icmp eq i32 %13, 0
  br i1 %.not, label %26, label %14

14:                                               ; preds = %7
  call void @llvm.lifetime.start.p0(i64 8, ptr nonnull %8) #5
  store ptr null, ptr %8, align 8, !tbaa !21
  call void @llvm.lifetime.start.p0(i64 4, ptr nonnull %9) #5
  store i32 -1, ptr %9, align 4, !tbaa !20
  %.not18.i = icmp eq ptr %4, null
  br i1 %.not18.i, label %19, label %15

15:                                               ; preds = %14
  %16 = getelementptr inbounds nuw i8, ptr %6, i64 8
  %17 = load i32, ptr %16, align 8, !tbaa !14
  %18 = call i32 %4(ptr noundef %1, i32 noundef %2, i32 noundef %17, ptr noundef nonnull %8, ptr noundef nonnull %9) #5
  %.not19.i = icmp eq i32 %18, 0
  br i1 %.not19.i, label %key_to_epki_pem_priv_bio.exit, label %._crit_edge.i

._crit_edge.i:                                    ; preds = %15
  %.pre.i = load ptr, ptr %8, align 8, !tbaa !21
  %.pre21.i = load i32, ptr %9, align 4, !tbaa !20
  br label %19

19:                                               ; preds = %._crit_edge.i, %14
  %20 = phi i32 [ %.pre21.i, %._crit_edge.i ], [ -1, %14 ]
  %21 = phi ptr [ %.pre.i, %._crit_edge.i ], [ null, %14 ]
  %22 = call fastcc ptr @key_to_encp8(ptr noundef %1, i32 noundef %2, ptr noundef %21, i32 noundef %20, ptr noundef readonly %5, ptr noundef nonnull %6)
  %.not20.i = icmp eq ptr %22, null
  br i1 %.not20.i, label %25, label %23

23:                                               ; preds = %19
  %24 = call i32 @PEM_write_bio_PKCS8(ptr noundef %0, ptr noundef nonnull %22) #5
  br label %25

25:                                               ; preds = %23, %19
  %.015.i = phi i32 [ %24, %23 ], [ 0, %19 ]
  call void @X509_SIG_free(ptr noundef %22) #5
  br label %key_to_epki_pem_priv_bio.exit

key_to_epki_pem_priv_bio.exit:                    ; preds = %15, %25
  %.0.i = phi i32 [ %.015.i, %25 ], [ 0, %15 ]
  call void @llvm.lifetime.end.p0(i64 4, ptr nonnull %9) #5
  call void @llvm.lifetime.end.p0(i64 8, ptr nonnull %8) #5
  br label %42

26:                                               ; preds = %7
  %.not25 = icmp eq ptr %4, null
  br i1 %.not25, label %31, label %27

27:                                               ; preds = %26
  %28 = getelementptr inbounds nuw i8, ptr %6, i64 8
  %29 = load i32, ptr %28, align 8, !tbaa !14
  %30 = call i32 %4(ptr noundef %1, i32 noundef %2, i32 noundef %29, ptr noundef nonnull %10, ptr noundef nonnull %11) #5
  %.not26 = icmp eq i32 %30, 0
  br i1 %.not26, label %42, label %._crit_edge

._crit_edge:                                      ; preds = %27
  %.pre = load ptr, ptr %10, align 8, !tbaa !21
  %.pre28 = load i32, ptr %11, align 4, !tbaa !20
  br label %31

31:                                               ; preds = %._crit_edge, %26
  %32 = phi i32 [ %.pre28, %._crit_edge ], [ -1, %26 ]
  %33 = phi ptr [ %.pre, %._crit_edge ], [ null, %26 ]
  %34 = call fastcc ptr @key_to_p8info(ptr noundef %1, i32 noundef %2, ptr noundef %33, i32 noundef %32, ptr noundef %5, ptr noundef nonnull %6)
  %.not27 = icmp eq ptr %34, null
  br i1 %.not27, label %37, label %35

35:                                               ; preds = %31
  %36 = call i32 @PEM_write_bio_PKCS8_PRIV_KEY_INFO(ptr noundef %0, ptr noundef nonnull %34) #5
  br label %free_asn1_data.exit

37:                                               ; preds = %31
  %38 = load i32, ptr %11, align 4, !tbaa !20
  %39 = load ptr, ptr %10, align 8, !tbaa !21
  switch i32 %38, label %free_asn1_data.exit [
    i32 6, label %40
    i32 16, label %41
  ]

40:                                               ; preds = %37
  call void @ASN1_OBJECT_free(ptr noundef %39) #5
  br label %free_asn1_data.exit

41:                                               ; preds = %37
  call void @ASN1_STRING_free(ptr noundef %39) #5
  br label %free_asn1_data.exit

free_asn1_data.exit:                              ; preds = %41, %40, %37, %35
  %.022 = phi i32 [ %36, %35 ], [ 0, %37 ], [ 0, %40 ], [ 0, %41 ]
  call void @PKCS8_PRIV_KEY_INFO_free(ptr noundef %34) #5
  br label %42

42:                                               ; preds = %27, %free_asn1_data.exit, %key_to_epki_pem_priv_bio.exit
  %.0 = phi i32 [ %.0.i, %key_to_epki_pem_priv_bio.exit ], [ %.022, %free_asn1_data.exit ], [ 0, %27 ]
  call void @llvm.lifetime.end.p0(i64 4, ptr nonnull %11) #5
  call void @llvm.lifetime.end.p0(i64 8, ptr nonnull %10) #5
  ret i32 %.0
}